; Function Attrs: inlinehint nofree norecurse nosync nounwind memory(argmem: readwrite) uwtable
define internal void @put_tpel_pixels_mc11_c(ptr noundef writeonly captures(none) %0, ptr noundef readonly captures(none) %1, i32 noundef %2, i32 noundef %3, i32 noundef %4) #1 {
  %6 = icmp sgt i32 %4, 0
  br i1 %6, label %.preheader.lr.ph, label %._crit_edge29

.preheader.lr.ph:                                 ; preds = %5
  %7 = icmp sgt i32 %3, 0
  %8 = sext i32 %2 to i64
  br i1 %7, label %.preheader.us.preheader, label %._crit_edge29

.preheader.us.preheader:                          ; preds = %.preheader.lr.ph
  %wide.trip.count = zext nneg i32 %3 to i64
  br label %.preheader.us

.preheader.us:                                    ; preds = %.preheader.us.preheader, %._crit_edge.us
  %.02128.us = phi i32 [ %29, %._crit_edge.us ], [ 0, %.preheader.us.preheader ]
  %.02227.us = phi ptr [ %28, %._crit_edge.us ], [ %0, %.preheader.us.preheader ]
  %.02326.us = phi ptr [ %27, %._crit_edge.us ], [ %1, %.preheader.us.preheader ]
  %invariant.gep = getelementptr i8, ptr %.02326.us, i64 %8
  br label %9

9:                                                ; preds = %.preheader.us, %9
  %indvars.iv = phi i64 [ 0, %.preheader.us ], [ %indvars.iv.next, %9 ]
  %10 = getelementptr inbounds nuw i8, ptr %.02326.us, i64 %indvars.iv
  %11 = load i8, ptr %10, align 1, !tbaa !8
  %12 = zext i8 %11 to i32
  %.reass.us = mul nuw nsw i32 %12, 10924
  %indvars.iv.next = add nuw nsw i64 %indvars.iv, 1
  %13 = getelementptr inbounds nuw i8, ptr %.02326.us, i64 %indvars.iv.next
  %14 = load i8, ptr %13, align 1, !tbaa !8
  %15 = zext i8 %14 to i32
  %gep = getelementptr i8, ptr %invariant.gep, i64 %indvars.iv
  %16 = load i8, ptr %gep, align 1, !tbaa !8
  %17 = zext i8 %16 to i32
  %18 = getelementptr i8, ptr %gep, i64 1
  %19 = load i8, ptr %18, align 1, !tbaa !8
  %20 = zext i8 %19 to i32
  %.reass24.us = mul nuw nsw i32 %20, 5462
  %reass.add.us = add nuw nsw i32 %17, %15
  %reass.mul.reass.us = mul nuw nsw i32 %reass.add.us, 8193
  %21 = add nuw nsw i32 %.reass24.us, %.reass.us
  %22 = add nuw nsw i32 %21, %reass.mul.reass.us
  %23 = add nuw nsw i32 %22, 16386
  %24 = lshr i32 %23, 15
  %25 = trunc nuw i32 %24 to i8
  %26 = getelementptr inbounds nuw i8, ptr %.02227.us, i64 %indvars.iv
  store i8 %25, ptr %26, align 1, !tbaa !8
  %exitcond.not = icmp eq i64 %indvars.iv.next, %wide.trip.count
  br i1 %exitcond.not, label %._crit_edge.us, label %9, !llvm.loop !23

._crit_edge.us:                                   ; preds = %9
  %27 = getelementptr inbounds i8, ptr %.02326.us, i64 %8
  %28 = getelementptr inbounds i8, ptr %.02227.us, i64 %8
  %29 = add nuw nsw i32 %.02128.us, 1
  %exitcond32.not = icmp eq i32 %29, %4
  br i1 %exitcond32.not, label %._crit_edge29, label %.preheader.us, !llvm.loop !24

._crit_edge29:                                    ; preds = %._crit_edge.us, %.preheader.lr.ph, %5
  ret void
}